; Function Attrs: mustprogress uwtable
define internal void @"_ZZN9grpc_core21promise_filter_detail14ClientCallData10StartBatchEP30grpc_transport_stream_op_batchEN3$_08__invokeEPvN4absl12lts_202308026StatusE"(ptr noundef %ptr, ptr nocapture noundef readonly %error) #3 align 2 personality ptr @__gxx_personality_v0 {
entry:
  %agg.tmp.i = alloca %"class.absl::lts_20230802::Status", align 8
  %error.val = load i64, ptr %error, align 8
  call void @llvm.lifetime.start.p0(i64 8, ptr nonnull %agg.tmp.i)
  store i64 %error.val, ptr %agg.tmp.i, align 8
  %and.i.i.i.i = and i64 %error.val, 1
  %cmp.i.i.i.i = icmp eq i64 %and.i.i.i.i, 0
  br i1 %cmp.i.i.i.i, label %_ZN4absl12lts_202308026StatusC2ERKS1_.exit.i, label %if.then.i.i.i

if.then.i.i.i:                                    ; preds = %entry
  %sub.i.i.i.i = add nsw i64 %error.val, -1
  %0 = inttoptr i64 %sub.i.i.i.i to ptr
  %1 = atomicrmw add ptr %0, i32 1 monotonic, align 4
  br label %_ZN4absl12lts_202308026StatusC2ERKS1_.exit.i

_ZN4absl12lts_202308026StatusC2ERKS1_.exit.i:     ; preds = %if.then.i.i.i, %entry
  invoke void @_ZN9grpc_core21promise_filter_detail14ClientCallData24RecvInitialMetadataReadyEN4absl12lts_202308026StatusE(ptr noundef nonnull align 16 dereferenceable(272) %ptr, ptr noundef nonnull %agg.tmp.i)
          to label %invoke.cont.i unwind label %lpad.i

invoke.cont.i:                                    ; preds = %_ZN4absl12lts_202308026StatusC2ERKS1_.exit.i
  %2 = load i64, ptr %agg.tmp.i, align 8
  %and.i.i.i1.i = and i64 %2, 1
  %cmp.i.i.i2.i = icmp eq i64 %and.i.i.i1.i, 0
  br i1 %cmp.i.i.i2.i, label %"_ZZN9grpc_core21promise_filter_detail14ClientCallData10StartBatchEP30grpc_transport_stream_op_batchENK3$_0clEPvN4absl12lts_202308026StatusE.exit", label %if.then.i.i3.i

if.then.i.i3.i:                                   ; preds = %invoke.cont.i
  invoke void @_ZN4absl12lts_202308026Status15UnrefNonInlinedEm(i64 noundef %2)
          to label %"_ZZN9grpc_core21promise_filter_detail14ClientCallData10StartBatchEP30grpc_transport_stream_op_batchENK3$_0clEPvN4absl12lts_202308026StatusE.exit" unwind label %terminate.lpad.i.i

terminate.lpad.i.i:                               ; preds = %if.then.i.i3.i
  %3 = landingpad { ptr, i32 }
          catch ptr null
  %4 = extractvalue { ptr, i32 } %3, 0
  call void @__clang_call_terminate(ptr %4) #32
  unreachable

lpad.i:                                           ; preds = %_ZN4absl12lts_202308026StatusC2ERKS1_.exit.i
  %5 = landingpad { ptr, i32 }
          cleanup
  call void @_ZN4absl12lts_202308026StatusD2Ev(ptr noundef nonnull align 8 dereferenceable(8) %agg.tmp.i) #31
  resume { ptr, i32 } %5

"_ZZN9grpc_core21promise_filter_detail14ClientCallData10StartBatchEP30grpc_transport_stream_op_batchENK3$_0clEPvN4absl12lts_202308026StatusE.exit": ; preds = %invoke.cont.i, %if.then.i.i3.i
  call void @llvm.lifetime.end.p0(i64 8, ptr nonnull %agg.tmp.i)
  ret void
}